target datalayout = "e-m:e-p270:32:32-p271:32:32-p272:64:64-i64:64-i128:128-f80:128-n8:16:32:64-S128"
target triple = "x86_64-pc-linux-gnu"

%"struct.std::_Rb_tree_header" = type { %"struct.std::_Rb_tree_node_base", i64 }
%"struct.std::_Rb_tree_node_base" = type { i32, ptr, ptr, ptr }
%"class.rocksdb::BlockCacheTraceSimulator" = type { i64, i32, %"class.std::vector.31", i8, %"class.std::map.36", i64 }
%"class.std::vector.31" = type { %"struct.std::_Vector_base.32" }
%"struct.std::_Vector_base.32" = type { %"struct.std::_Vector_base<rocksdb::CacheConfiguration, std::allocator<rocksdb::CacheConfiguration>>::_Vector_impl" }
%"struct.std::_Vector_base<rocksdb::CacheConfiguration, std::allocator<rocksdb::CacheConfiguration>>::_Vector_impl" = type { %"struct.std::_Vector_base<rocksdb::CacheConfiguration, std::allocator<rocksdb::CacheConfiguration>>::_Vector_impl_data" }
%"struct.std::_Vector_base<rocksdb::CacheConfiguration, std::allocator<rocksdb::CacheConfiguration>>::_Vector_impl_data" = type { ptr, ptr, ptr }
%"class.std::map.36" = type { %"class.std::_Rb_tree.37" }
%"class.std::_Rb_tree.37" = type { %"struct.std::_Rb_tree<rocksdb::CacheConfiguration, std::pair<const rocksdb::CacheConfiguration, std::vector<std::shared_ptr<rocksdb::CacheSimulator>>>, std::_Select1st<std::pair<const rocksdb::CacheConfiguration, std::vector<std::shared_ptr<rocksdb::CacheSimulator>>>>, std::less<rocksdb::CacheConfiguration>>::_Rb_tree_impl" }
%"struct.std::_Rb_tree<rocksdb::CacheConfiguration, std::pair<const rocksdb::CacheConfiguration, std::vector<std::shared_ptr<rocksdb::CacheSimulator>>>, std::_Select1st<std::pair<const rocksdb::CacheConfiguration, std::vector<std::shared_ptr<rocksdb::CacheSimulator>>>>, std::less<rocksdb::CacheConfiguration>>::_Rb_tree_impl" = type { [8 x i8], %"struct.std::_Rb_tree_header" }

; Function Attrs: noinline noreturn nounwind uwtable
define linkonce_odr hidden void @__clang_call_terminate(ptr noundef %0) #11 comdat {
  %2 = call ptr @__cxa_begin_catch(ptr %0) #5
  call void @_ZSt9terminatev() #22
  unreachable
}

; Function Attrs: mustprogress nounwind uwtable
define linkonce_odr void @_ZNSt15_Rb_tree_header8_M_resetEv(ptr noundef nonnull align 8 dereferenceable(40) %0) #3 comdat align 2 {
  %2 = alloca ptr, align 8
  store ptr %0, ptr %2, align 8, !tbaa !249
  %3 = load ptr, ptr %2, align 8
  %4 = getelementptr inbounds nuw %"struct.std::_Rb_tree_header", ptr %3, i32 0, i32 0
  %5 = getelementptr inbounds nuw %"struct.std::_Rb_tree_node_base", ptr %4, i32 0, i32 1
  store ptr null, ptr %5, align 8, !tbaa !254
  %6 = getelementptr inbounds nuw %"struct.std::_Rb_tree_header", ptr %3, i32 0, i32 0
  %7 = getelementptr inbounds nuw %"struct.std::_Rb_tree_header", ptr %3, i32 0, i32 0
  %8 = getelementptr inbounds nuw %"struct.std::_Rb_tree_node_base", ptr %7, i32 0, i32 2
  store ptr %6, ptr %8, align 8, !tbaa !255
  %9 = getelementptr inbounds nuw %"struct.std::_Rb_tree_header", ptr %3, i32 0, i32 0
  %10 = getelementptr inbounds nuw %"struct.std::_Rb_tree_header", ptr %3, i32 0, i32 0
  %11 = getelementptr inbounds nuw %"struct.std::_Rb_tree_node_base", ptr %10, i32 0, i32 3
  store ptr %9, ptr %11, align 8, !tbaa !256
  %12 = getelementptr inbounds nuw %"struct.std::_Rb_tree_header", ptr %3, i32 0, i32 1
  store i64 0, ptr %12, align 8, !tbaa !257
  ret void
}

; Function Attrs: mustprogress nounwind uwtable
define linkonce_odr void @_ZNSt15__new_allocatorISt13_Rb_tree_nodeISt4pairIKN7rocksdb18CacheConfigurationESt6vectorISt10shared_ptrINS2_14CacheSimulatorEESaIS8_EEEEEC2Ev(ptr noundef nonnull align 1 dereferenceable(1) %0) unnamed_addr #3 comdat align 2 {
  %2 = alloca ptr, align 8
  store ptr %0, ptr %2, align 8, !tbaa !280
  ret void
}

; Function Attrs: mustprogress nounwind uwtable
define linkonce_odr void @_ZNSt15_Rb_tree_headerC2Ev(ptr noundef nonnull align 8 dereferenceable(40) %0) unnamed_addr #3 comdat align 2 personality ptr @__gxx_personality_v0 {
  %2 = alloca ptr, align 8
  store ptr %0, ptr %2, align 8, !tbaa !249
  %3 = load ptr, ptr %2, align 8
  %4 = getelementptr inbounds nuw %"struct.std::_Rb_tree_header", ptr %3, i32 0, i32 0
  %5 = getelementptr inbounds nuw %"struct.std::_Rb_tree_node_base", ptr %4, i32 0, i32 0
  store i32 0, ptr %5, align 8, !tbaa !251
  invoke void @_ZNSt15_Rb_tree_header8_M_resetEv(ptr noundef nonnull align 8 dereferenceable(40) %3)
          to label %6 unwind label %7

6:                                                ; preds = %1
  ret void

7:                                                ; preds = %1
  %8 = landingpad { ptr, i32 }
          catch ptr null
  %9 = extractvalue { ptr, i32 } %8, 0
  call void @__clang_call_terminate(ptr %9) #22
  unreachable
}

; Function Attrs: mustprogress nounwind uwtable
define linkonce_odr void @_ZNSt20_Rb_tree_key_compareISt4lessIN7rocksdb18CacheConfigurationEEEC2Ev(ptr noundef nonnull align 1 dereferenceable(1) %0) unnamed_addr #3 comdat align 2 {
  %2 = alloca ptr, align 8
  store ptr %0, ptr %2, align 8, !tbaa !278
  ret void
}

; Function Attrs: mustprogress nounwind uwtable
define linkonce_odr void @_ZNSaISt13_Rb_tree_nodeISt4pairIKN7rocksdb18CacheConfigurationESt6vectorISt10shared_ptrINS1_14CacheSimulatorEESaIS7_EEEEEC2Ev(ptr noundef nonnull align 1 dereferenceable(1) %0) unnamed_addr #3 comdat align 2 {
  %2 = alloca ptr, align 8
  store ptr %0, ptr %2, align 8, !tbaa !276
  %3 = load ptr, ptr %2, align 8
  call void @_ZNSt15__new_allocatorISt13_Rb_tree_nodeISt4pairIKN7rocksdb18CacheConfigurationESt6vectorISt10shared_ptrINS2_14CacheSimulatorEESaIS8_EEEEEC2Ev(ptr noundef nonnull align 1 dereferenceable(1) %3) #5
  ret void
}

; Function Attrs: mustprogress nounwind uwtable
define linkonce_odr void @_ZNSt8_Rb_treeIN7rocksdb18CacheConfigurationESt4pairIKS1_St6vectorISt10shared_ptrINS0_14CacheSimulatorEESaIS7_EEESt10_Select1stISA_ESt4lessIS1_ESaISA_EE13_Rb_tree_implISE_Lb1EEC2Ev(ptr noundef nonnull align 8 dereferenceable(48) %0) unnamed_addr #3 comdat align 2 {
  %2 = alloca ptr, align 8
  store ptr %0, ptr %2, align 8, !tbaa !274
  %3 = load ptr, ptr %2, align 8
  call void @_ZNSaISt13_Rb_tree_nodeISt4pairIKN7rocksdb18CacheConfigurationESt6vectorISt10shared_ptrINS1_14CacheSimulatorEESaIS7_EEEEEC2Ev(ptr noundef nonnull align 1 dereferenceable(1) %3) #5
  call void @_ZNSt20_Rb_tree_key_compareISt4lessIN7rocksdb18CacheConfigurationEEEC2Ev(ptr noundef nonnull align 1 dereferenceable(1) %3) #5
  %4 = getelementptr inbounds i8, ptr %3, i64 8
  call void @_ZNSt15_Rb_tree_headerC2Ev(ptr noundef nonnull align 8 dereferenceable(40) %4) #5
  ret void
}

; Function Attrs: mustprogress nounwind uwtable
define linkonce_odr void @_ZNSt8_Rb_treeIN7rocksdb18CacheConfigurationESt4pairIKS1_St6vectorISt10shared_ptrINS0_14CacheSimulatorEESaIS7_EEESt10_Select1stISA_ESt4lessIS1_ESaISA_EEC2Ev(ptr noundef nonnull align 8 dereferenceable(48) %0) unnamed_addr #3 comdat align 2 {
  %2 = alloca ptr, align 8
  store ptr %0, ptr %2, align 8, !tbaa !272
  %3 = load ptr, ptr %2, align 8
  %4 = getelementptr inbounds nuw %"class.std::_Rb_tree.37", ptr %3, i32 0, i32 0
  call void @_ZNSt8_Rb_treeIN7rocksdb18CacheConfigurationESt4pairIKS1_St6vectorISt10shared_ptrINS0_14CacheSimulatorEESaIS7_EEESt10_Select1stISA_ESt4lessIS1_ESaISA_EE13_Rb_tree_implISE_Lb1EEC2Ev(ptr noundef nonnull align 8 dereferenceable(48) %4) #5
  ret void
}

; Function Attrs: mustprogress nounwind uwtable
define linkonce_odr void @_ZNSt3mapIN7rocksdb18CacheConfigurationESt6vectorISt10shared_ptrINS0_14CacheSimulatorEESaIS5_EESt4lessIS1_ESaISt4pairIKS1_S7_EEEC2Ev(ptr noundef nonnull align 8 dereferenceable(48) %0) unnamed_addr #3 comdat align 2 {
  %2 = alloca ptr, align 8
  store ptr %0, ptr %2, align 8, !tbaa !150
  %3 = load ptr, ptr %2, align 8
  %4 = getelementptr inbounds nuw %"class.std::map.36", ptr %3, i32 0, i32 0
  call void @_ZNSt8_Rb_treeIN7rocksdb18CacheConfigurationESt4pairIKS1_St6vectorISt10shared_ptrINS0_14CacheSimulatorEESaIS7_EEESt10_Select1stISA_ESt4lessIS1_ESaISA_EEC2Ev(ptr noundef nonnull align 8 dereferenceable(48) %4) #5
  ret void
}

; Function Attrs: mustprogress uwtable
define void @_ZN7rocksdb24BlockCacheTraceSimulatorC2EmjRKSt6vectorINS_18CacheConfigurationESaIS2_EE(ptr noundef nonnull align 8 dereferenceable(104) %0, i64 noundef %1, i32 noundef %2, ptr noundef nonnull align 8 dereferenceable(24) %3) unnamed_addr #4 align 2 {
  %5 = alloca ptr, align 8
  %6 = alloca i64, align 8
  %7 = alloca i32, align 4
  %8 = alloca ptr, align 8
  store ptr %0, ptr %5, align 8, !tbaa !128
  store i64 %1, ptr %6, align 8, !tbaa !4
  store i32 %2, ptr %7, align 4, !tbaa !130
  store ptr %3, ptr %8, align 8, !tbaa !131
  %9 = load ptr, ptr %5, align 8
  %10 = getelementptr inbounds nuw %"class.rocksdb::BlockCacheTraceSimulator", ptr %9, i32 0, i32 0
  %11 = load i64, ptr %6, align 8, !tbaa !4
  store i64 %11, ptr %10, align 8, !tbaa !133
  %12 = getelementptr inbounds nuw %"class.rocksdb::BlockCacheTraceSimulator", ptr %9, i32 0, i32 1
  %13 = load i32, ptr %7, align 4, !tbaa !130
  store i32 %13, ptr %12, align 8, !tbaa !145
  %14 = getelementptr inbounds nuw %"class.rocksdb::BlockCacheTraceSimulator", ptr %9, i32 0, i32 2
  %15 = load ptr, ptr %8, align 8, !tbaa !131
  call void @_ZNSt6vectorIN7rocksdb18CacheConfigurationESaIS1_EEC2ERKS3_(ptr noundef nonnull align 8 dereferenceable(24) %14, ptr noundef nonnull align 8 dereferenceable(24) %15)
  %16 = getelementptr inbounds nuw %"class.rocksdb::BlockCacheTraceSimulator", ptr %9, i32 0, i32 3
  store i8 0, ptr %16, align 8, !tbaa !146
  %17 = getelementptr inbounds nuw %"class.rocksdb::BlockCacheTraceSimulator", ptr %9, i32 0, i32 4
  call void @_ZNSt3mapIN7rocksdb18CacheConfigurationESt6vectorISt10shared_ptrINS0_14CacheSimulatorEESaIS5_EESt4lessIS1_ESaISt4pairIKS1_S7_EEEC2Ev(ptr noundef nonnull align 8 dereferenceable(48) %17) #5
  %18 = getelementptr inbounds nuw %"class.rocksdb::BlockCacheTraceSimulator", ptr %9, i32 0, i32 5
  store i64 0, ptr %18, align 8, !tbaa !147
  ret void
}