; Function Attrs: mustprogress uwtable
define void @_ZN7rocksdb24BlockCacheTraceSimulatorC2EmjRKSt6vectorINS_18CacheConfigurationESaIS2_EE(ptr noundef nonnull align 8 dereferenceable(104) initializes((0, 12)) %0, i64 noundef %1, i32 noundef %2, ptr noundef nonnull align 8 dereferenceable(24) %3) unnamed_addr #4 align 2 personality ptr @__gxx_personality_v0 {
  store i64 %1, ptr %0, align 8, !tbaa !98
  %5 = getelementptr inbounds nuw i8, ptr %0, i64 8
  store i32 %2, ptr %5, align 8, !tbaa !110
  %6 = getelementptr inbounds nuw i8, ptr %0, i64 16
  tail call void @_ZNSt6vectorIN7rocksdb18CacheConfigurationESaIS1_EEC2ERKS3_(ptr noundef nonnull align 8 dereferenceable(24) %6, ptr noundef nonnull align 8 dereferenceable(24) %3)
  %7 = getelementptr inbounds nuw i8, ptr %0, i64 40
  store i8 0, ptr %7, align 8, !tbaa !111
  %8 = getelementptr inbounds nuw i8, ptr %0, i64 56
  store i32 0, ptr %8, align 8, !tbaa !24
  %9 = getelementptr inbounds nuw i8, ptr %0, i64 64
  store ptr null, ptr %9, align 8, !tbaa !29
  %10 = getelementptr inbounds nuw i8, ptr %0, i64 72
  store ptr %8, ptr %10, align 8, !tbaa !30
  %11 = getelementptr inbounds nuw i8, ptr %0, i64 80
  store ptr %8, ptr %11, align 8, !tbaa !31
  %12 = getelementptr inbounds nuw i8, ptr %0, i64 88
  tail call void @llvm.memset.p0.i64(ptr noundef nonnull align 8 dereferenceable(16) %12, i8 0, i64 16, i1 false)
  ret void
}